target datalayout = "e-m:e-p270:32:32-p271:32:32-p272:64:64-i64:64-i128:128-f80:128-n8:16:32:64-S128"
target triple = "x86_64-pc-linux-gnu"

%struct.avifIO = type { ptr, ptr, ptr, i64, i32, ptr }
%struct.avifIOFileReader = type { %struct.avifIO, %struct.avifRWData, ptr }
%struct.avifRWData = type { ptr, i64 }

@.str = private unnamed_addr constant [3 x i8] c"rb\00", align 1

; Function Attrs: nounwind uwtable
define hidden ptr @avifIOCreateFileReader(ptr noundef %0) #0 {
  %2 = alloca ptr, align 8
  %3 = alloca ptr, align 8
  %4 = alloca ptr, align 8
  %5 = alloca i64, align 8
  %6 = alloca ptr, align 8
  store ptr %0, ptr %3, align 8
  %7 = load ptr, ptr %3, align 8
  %8 = call noalias ptr @fopen(ptr noundef %7, ptr noundef @.str)
  store ptr %8, ptr %4, align 8
  %9 = load ptr, ptr %4, align 8
  %10 = icmp ne ptr %9, null
  br i1 %10, label %12, label %11

11:                                               ; preds = %1
  store ptr null, ptr %2, align 8
  br label %59

12:                                               ; preds = %1
  %13 = load ptr, ptr %4, align 8
  %14 = call i32 @fseek(ptr noundef %13, i64 noundef 0, i32 noundef 2)
  %15 = load ptr, ptr %4, align 8
  %16 = call i64 @ftell(ptr noundef %15)
  store i64 %16, ptr %5, align 8
  %17 = load i64, ptr %5, align 8
  %18 = icmp slt i64 %17, 0
  br i1 %18, label %19, label %22

19:                                               ; preds = %12
  %20 = load ptr, ptr %4, align 8
  %21 = call i32 @fclose(ptr noundef %20)
  store ptr null, ptr %2, align 8
  br label %59

22:                                               ; preds = %12
  %23 = load ptr, ptr %4, align 8
  %24 = call i32 @fseek(ptr noundef %23, i64 noundef 0, i32 noundef 0)
  %25 = call ptr @avifAlloc(i64 noundef 72)
  store ptr %25, ptr %6, align 8
  %26 = load ptr, ptr %6, align 8
  %27 = icmp ne ptr %26, null
  br i1 %27, label %31, label %28

28:                                               ; preds = %22
  %29 = load ptr, ptr %4, align 8
  %30 = call i32 @fclose(ptr noundef %29)
  store ptr null, ptr %2, align 8
  br label %59

31:                                               ; preds = %22
  %32 = load ptr, ptr %6, align 8
  call void @llvm.memset.p0.i64(ptr align 8 %32, i8 0, i64 72, i1 false)
  %33 = load ptr, ptr %4, align 8
  %34 = load ptr, ptr %6, align 8
  %35 = getelementptr inbounds nuw %struct.avifIOFileReader, ptr %34, i32 0, i32 2
  store ptr %33, ptr %35, align 8
  %36 = load ptr, ptr %6, align 8
  %37 = getelementptr inbounds nuw %struct.avifIOFileReader, ptr %36, i32 0, i32 0
  %38 = getelementptr inbounds nuw %struct.avifIO, ptr %37, i32 0, i32 0
  store ptr @avifIOFileReaderDestroy, ptr %38, align 8
  %39 = load ptr, ptr %6, align 8
  %40 = getelementptr inbounds nuw %struct.avifIOFileReader, ptr %39, i32 0, i32 0
  %41 = getelementptr inbounds nuw %struct.avifIO, ptr %40, i32 0, i32 1
  store ptr @avifIOFileReaderRead, ptr %41, align 8
  %42 = load i64, ptr %5, align 8
  %43 = load ptr, ptr %6, align 8
  %44 = getelementptr inbounds nuw %struct.avifIOFileReader, ptr %43, i32 0, i32 0
  %45 = getelementptr inbounds nuw %struct.avifIO, ptr %44, i32 0, i32 3
  store i64 %42, ptr %45, align 8
  %46 = load ptr, ptr %6, align 8
  %47 = getelementptr inbounds nuw %struct.avifIOFileReader, ptr %46, i32 0, i32 0
  %48 = getelementptr inbounds nuw %struct.avifIO, ptr %47, i32 0, i32 4
  store i32 0, ptr %48, align 8
  %49 = load ptr, ptr %6, align 8
  %50 = getelementptr inbounds nuw %struct.avifIOFileReader, ptr %49, i32 0, i32 1
  %51 = call i32 @avifRWDataRealloc(ptr noundef %50, i64 noundef 1024)
  %52 = icmp ne i32 %51, 0
  br i1 %52, label %53, label %57

53:                                               ; preds = %31
  %54 = load ptr, ptr %6, align 8
  call void @avifFree(ptr noundef %54)
  %55 = load ptr, ptr %4, align 8
  %56 = call i32 @fclose(ptr noundef %55)
  store ptr null, ptr %2, align 8
  br label %59

57:                                               ; preds = %31
  %58 = load ptr, ptr %6, align 8
  store ptr %58, ptr %2, align 8
  br label %59

59:                                               ; preds = %57, %53, %28, %19, %11
  %60 = load ptr, ptr %2, align 8
  ret ptr %60
}