; Function Attrs: nounwind uwtable
define hidden ptr @avifIOCreateFileReader(ptr noundef readonly captures(none) %0) local_unnamed_addr #0 {
  %2 = tail call noalias ptr @fopen(ptr noundef %0, ptr noundef nonnull @.str)
  %.not = icmp eq ptr %2, null
  br i1 %.not, label %19, label %3

3:                                                ; preds = %1
  %4 = tail call i32 @fseek(ptr noundef nonnull %2, i64 noundef 0, i32 noundef 2)
  %5 = tail call i64 @ftell(ptr noundef nonnull %2)
  %6 = icmp slt i64 %5, 0
  br i1 %6, label %.sink.split, label %7

7:                                                ; preds = %3
  %8 = tail call i32 @fseek(ptr noundef nonnull %2, i64 noundef 0, i32 noundef 0)
  %9 = tail call ptr @avifAlloc(i64 noundef 72) #7
  %.not24 = icmp eq ptr %9, null
  br i1 %.not24, label %.sink.split, label %10

10:                                               ; preds = %7
  %11 = getelementptr inbounds nuw i8, ptr %9, i64 16
  tail call void @llvm.memset.p0.i64(ptr noundef nonnull align 8 dereferenceable(72) %11, i8 0, i64 48, i1 false)
  %12 = getelementptr inbounds nuw i8, ptr %9, i64 64
  store ptr %2, ptr %12, align 8
  store ptr @avifIOFileReaderDestroy, ptr %9, align 8
  %13 = getelementptr inbounds nuw i8, ptr %9, i64 8
  store ptr @avifIOFileReaderRead, ptr %13, align 8
  %14 = getelementptr inbounds nuw i8, ptr %9, i64 24
  store i64 %5, ptr %14, align 8
  %15 = getelementptr inbounds nuw i8, ptr %9, i64 48
  %16 = tail call i32 @avifRWDataRealloc(ptr noundef nonnull %15, i64 noundef 1024) #7
  %.not25 = icmp eq i32 %16, 0
  br i1 %.not25, label %19, label %17

17:                                               ; preds = %10
  tail call void @avifFree(ptr noundef nonnull %9) #7
  br label %.sink.split

.sink.split:                                      ; preds = %7, %3, %17
  %18 = tail call i32 @fclose(ptr noundef nonnull %2)
  br label %19

19:                                               ; preds = %.sink.split, %10, %1
  %.0 = phi ptr [ null, %1 ], [ %9, %10 ], [ null, %.sink.split ]
  ret ptr %.0
}